(i__main__
game_options
p0
(dp1
S'sound_check'
p2
I01
sS'opengl_check'
p3
I01
sS'host_port'
p4
F4046.0
sS'network_rom'
p5
I00
sS'host_radio'
p6
I00
sS'fullscreen_check'
p7
I01
<<<<<<< HEAD
sS'join_add'
p8
S''
p9
sS'join_port'
p10
F4046.0
sS'host_pass'
p11
g9
sS'join_pass'
p12
g9
=======
sS'join_port'
p8
F4046.0
sS'join_radio'
p9
I00
sS'host_pass'
p10
S''
p11
sS'join_pass'
p12
g11
>>>>>>> 9cf5c53... Some NES emulator defaults with gamepads configured
sS'no_network_radio'
p13
I01
sS'romfile'
p14
S'/home/cj/Raspberry/retropie/RetroPie/roms/nes/Metroid.zip'
p15
<<<<<<< HEAD
sS'extra_entry'
p16
g9
sS'join_radio'
p17
I00
=======
sS'join_add'
p16
g11
sS'extra_entry'
p17
g11
>>>>>>> 9cf5c53... Some NES emulator defaults with gamepads configured
sb.